; ModuleID = '24/2679.c'
source_filename = "24/2679.c"
target datalayout = "e-m:e-p270:32:32-p271:32:32-p272:64:64-i64:64-f80:128-n8:16:32:64-S128"
target triple = "x86_64-pc-linux-gnu"

@.str = private unnamed_addr constant [3 x i8] c"%d\00", align 1
@.str.1 = private unnamed_addr constant [3 x i8] c"%s\00", align 1
@.str.2 = private unnamed_addr constant [2 x i8] c"\0A\00", align 1

; Function Attrs: noinline nounwind uwtable
define dso_local i32 @main() #0 {
  %1 = alloca i32, align 4
  %2 = alloca i32, align 4
  %3 = alloca [300 x i8], align 16
  %4 = alloca [300 x i8], align 16
  %5 = alloca [300 x i8], align 16
  %6 = alloca i32, align 4
  %7 = alloca i32, align 4
  %8 = alloca i32, align 4
  store i32 0, i32* %1, align 4
  %9 = call i32 (i8*, ...) @__isoc99_scanf(i8* getelementptr inbounds ([3 x i8], [3 x i8]* @.str, i64 0, i64 0), i32* %2)
  %10 = getelementptr inbounds [300 x i8], [300 x i8]* %4, i64 0, i64 0
  %11 = call i32 (i8*, ...) @__isoc99_scanf(i8* getelementptr inbounds ([3 x i8], [3 x i8]* @.str.1, i64 0, i64 0), i8* %10)
  %12 = getelementptr inbounds [300 x i8], [300 x i8]* %5, i64 0, i64 0
  %13 = getelementptr inbounds [300 x i8], [300 x i8]* %4, i64 0, i64 0
  %14 = call i8* @strcpy(i8* %12, i8* %13) #4
  %15 = getelementptr inbounds [300 x i8], [300 x i8]* %4, i64 0, i64 0
  %16 = call i64 @strlen(i8* %15) #5
  %17 = trunc i64 %16 to i32
  store i32 %17, i32* %8, align 4
  store i32 %17, i32* %7, align 4
  %18 = load i32, i32* %2, align 4
  %19 = sub nsw i32 %18, 1
  store i32 %19, i32* %2, align 4
  br label %20

20:                                               ; preds = %49, %0
  %21 = load i32, i32* %2, align 4
  %22 = icmp ne i32 %21, 0
  br i1 %22, label %23, label %50

23:                                               ; preds = %20
  %24 = load i32, i32* %2, align 4
  %25 = sub nsw i32 %24, 1
  store i32 %25, i32* %2, align 4
  %26 = call i32 (i8*, ...) @__isoc99_scanf(i8* getelementptr inbounds ([2 x i8], [2 x i8]* @.str.2, i64 0, i64 0))
  %27 = getelementptr inbounds [300 x i8], [300 x i8]* %3, i64 0, i64 0
  %28 = call i32 (i8*, ...) @__isoc99_scanf(i8* getelementptr inbounds ([3 x i8], [3 x i8]* @.str.1, i64 0, i64 0), i8* %27)
  %29 = getelementptr inbounds [300 x i8], [300 x i8]* %3, i64 0, i64 0
  %30 = call i64 @strlen(i8* %29) #5
  %31 = trunc i64 %30 to i32
  store i32 %31, i32* %6, align 4
  %32 = load i32, i32* %6, align 4
  %33 = load i32, i32* %7, align 4
  %34 = icmp slt i32 %32, %33
  br i1 %34, label %35, label %40

35:                                               ; preds = %23
  %36 = getelementptr inbounds [300 x i8], [300 x i8]* %4, i64 0, i64 0
  %37 = getelementptr inbounds [300 x i8], [300 x i8]* %3, i64 0, i64 0
  %38 = call i8* @strcpy(i8* %36, i8* %37) #4
  %39 = load i32, i32* %6, align 4
  store i32 %39, i32* %7, align 4
  br label %40

40:                                               ; preds = %35, %23
  %41 = load i32, i32* %6, align 4
  %42 = load i32, i32* %8, align 4
  %43 = icmp sgt i32 %41, %42
  br i1 %43, label %44, label %49

44:                                               ; preds = %40
  %45 = getelementptr inbounds [300 x i8], [300 x i8]* %5, i64 0, i64 0
  %46 = getelementptr inbounds [300 x i8], [300 x i8]* %3, i64 0, i64 0
  %47 = call i8* @strcpy(i8* %45, i8* %46) #4
  %48 = load i32, i32* %6, align 4
  store i32 %48, i32* %8, align 4
  br label %49

49:                                               ; preds = %44, %40
  br label %20

50:                                               ; preds = %20
  %51 = getelementptr inbounds [300 x i8], [300 x i8]* %5, i64 0, i64 0
  %52 = call i32 @puts(i8* %51)
  %53 = getelementptr inbounds [300 x i8], [300 x i8]* %4, i64 0, i64 0
  %54 = call i32 (i8*, ...) @printf(i8* getelementptr inbounds ([3 x i8], [3 x i8]* @.str.1, i64 0, i64 0), i8* %53)
  ret i32 0
}

declare dso_local i32 @__isoc99_scanf(i8*, ...) #1

; Function Attrs: nounwind
declare dso_local i8* @strcpy(i8*, i8*) #2

; Function Attrs: nounwind readonly
declare dso_local i64 @strlen(i8*) #3

declare dso_local i32 @puts(i8*) #1

declare dso_local i32 @printf(i8*, ...) #1


!llvm.module.flags = !{!0}
!llvm.ident = !{!1}

!0 = !{i32 1, !"wchar_size", i32 4}
!1 = !{!"clang version 10.0.0-4ubuntu1 "}
